; Function Attrs: mustprogress uwtable
define hidden void @_ZN4cvc58internal5proof22AletheProofPostprocessC2ERNS0_3EnvERNS1_19AletheNodeConverterE(ptr noundef nonnull align 8 dereferenceable(144) %0, ptr noundef nonnull align 8 dereferenceable(696) %1, ptr noundef nonnull align 8 dereferenceable(480) %2) unnamed_addr #6 align 2 personality ptr @__gxx_personality_v0 {
  tail call void @_ZN4cvc58internal6EnvObjC2ERNS0_3EnvE(ptr noundef nonnull align 8 dereferenceable(16) %0, ptr noundef nonnull align 8 dereferenceable(696) %1)
  store ptr getelementptr inbounds nuw inrange(-16, 16) (i8, ptr @_ZTVN4cvc58internal5proof22AletheProofPostprocessE, i64 16), ptr %0, align 8, !tbaa !19
  %4 = tail call noundef nonnull align 8 dereferenceable(408) ptr @_ZNK4cvc58internal6EnvObj7optionsEv(ptr noundef nonnull align 8 dereferenceable(16) %0)
  %5 = getelementptr inbounds nuw i8, ptr %0, i64 16
  %6 = getelementptr inbounds nuw i8, ptr %4, i64 328
  %7 = load ptr, ptr %6, align 8, !tbaa !156
  %8 = getelementptr inbounds nuw i8, ptr %7, i64 14
  %9 = load i8, ptr %8, align 2, !tbaa !558, !range !87, !noundef !88
  %10 = trunc nuw i8 %9 to i1
  tail call void @_ZN4cvc58internal5proof30AletheProofPostprocessCallbackC2ERNS0_3EnvERNS1_19AletheNodeConverterEb(ptr noundef nonnull align 8 dereferenceable(96) %5, ptr noundef nonnull align 8 dereferenceable(696) %1, ptr noundef nonnull align 8 dereferenceable(480) %2, i1 noundef zeroext %10)
  %11 = getelementptr inbounds nuw i8, ptr %0, i64 112
  %12 = getelementptr inbounds nuw i8, ptr %0, i64 128
  store ptr %12, ptr %11, align 8, !tbaa !23
  %13 = getelementptr inbounds nuw i8, ptr %0, i64 120
  store i64 0, ptr %13, align 8, !tbaa !26
  store i8 0, ptr %12, align 8, !tbaa !28
  ret void
}